target datalayout = "e-m:e-p270:32:32-p271:32:32-p272:64:64-i64:64-i128:128-f80:128-n8:16:32:64-S128"
target triple = "x86_64-pc-linux-gnu"

%struct.Mig_Man_t_ = type { ptr, i32, i32, i32, %struct.Vec_Ptr_t_, %struct.Vec_Int_t_, %struct.Vec_Int_t_, ptr, i32, i32, %struct.Vec_Int_t_, %struct.Vec_Int_t_, %struct.Vec_Int_t_, %struct.Vec_Int_t_, %struct.Vec_Int_t_, ptr }
%struct.Vec_Ptr_t_ = type { i32, i32, ptr }
%struct.Vec_Int_t_ = type { i32, i32, ptr }
%struct.Mig_Obj_t_ = type { [4 x %struct.Mig_Fan_t_] }
%struct.Mig_Fan_t_ = type { i32 }
%struct.Mpm_Cut_t_ = type { i32, i32, [1 x i32] }
%struct.Mpm_Man_t_ = type { ptr, ptr, i32, i32, i32, ptr, i32, i32, i64, i64, ptr, i32, [33 x ptr], [33 x %struct.Mpm_Uni_t_], %struct.Vec_Ptr_t_, ptr, ptr, [3 x i32], [3 x [33 x ptr]], [3 x [33 x i64]], ptr, i32, i32, [64 x i64], [64 x i64], [64 x i64], [64 x i64], ptr, ptr, ptr, ptr, [720 x [6 x i8]], ptr, [3 x i32], [3 x i32], ptr, %struct.Vec_Int_t_, %struct.Vec_Int_t_, %struct.Vec_Int_t_, %struct.Vec_Int_t_, %struct.Vec_Int_t_, %struct.Vec_Int_t_, %struct.Vec_Int_t_, %struct.Vec_Int_t_, %struct.Vec_Int_t_, [600 x i32], i32, i32, i32, i32, i32, i64, i64, i64, i64, i64, i64, i64 }
%struct.Mpm_Uni_t_ = type { i32, i32, i32, i32, i64, i32, %struct.Mpm_Cut_t_, [11 x i32] }
%struct.Mmr_Step_t_ = type { i32, i32, i32, i32, i32, [0 x %struct.Mmr_Fixed_t_] }
%struct.Mmr_Fixed_t_ = type { i32, i32, i32, i32, i32, %struct.Vec_Ptr_t_, %struct.Vec_Int_t_ }

@.str = private unnamed_addr constant [55 x i8] c"Mpm_ManNodeIfToGia(): Computing local AIG has failed.\0A\00", align 1

; Function Attrs: nounwind uwtable
define internal ptr @Mmr_FixedEntry(ptr noundef %0, i32 noundef %1) #0 {
  %3 = alloca ptr, align 8
  %4 = alloca i32, align 4
  store ptr %0, ptr %3, align 8
  store i32 %1, ptr %4, align 4
  %5 = load ptr, ptr %3, align 8
  %6 = getelementptr inbounds %struct.Mmr_Fixed_t_, ptr %5, i32 0, i32 5
  %7 = load i32, ptr %4, align 4
  %8 = load ptr, ptr %3, align 8
  %9 = getelementptr inbounds %struct.Mmr_Fixed_t_, ptr %8, i32 0, i32 0
  %10 = load i32, ptr %9, align 8
  %11 = ashr i32 %7, %10
  %12 = call ptr @Vec_PtrEntry(ptr noundef %6, i32 noundef %11)
  %13 = load i32, ptr %4, align 4
  %14 = load ptr, ptr %3, align 8
  %15 = getelementptr inbounds %struct.Mmr_Fixed_t_, ptr %14, i32 0, i32 1
  %16 = load i32, ptr %15, align 4
  %17 = and i32 %13, %16
  %18 = sext i32 %17 to i64
  %19 = getelementptr inbounds i64, ptr %12, i64 %18
  ret ptr %19
}

; Function Attrs: nounwind uwtable
define internal i32 @Mig_FanId(ptr noundef %0, i32 noundef %1) #0 {
  %3 = alloca ptr, align 8
  %4 = alloca i32, align 4
  store ptr %0, ptr %3, align 8
  store i32 %1, ptr %4, align 4
  %5 = load ptr, ptr %3, align 8
  %6 = getelementptr inbounds %struct.Mig_Obj_t_, ptr %5, i32 0, i32 0
  %7 = load i32, ptr %4, align 4
  %8 = sext i32 %7 to i64
  %9 = getelementptr inbounds [4 x %struct.Mig_Fan_t_], ptr %6, i64 0, i64 %8
  %10 = load i32, ptr %9, align 4
  %11 = lshr i32 %10, 1
  ret i32 %11
}

; Function Attrs: nounwind uwtable
define internal i32 @Mig_IdPage(i32 noundef %0) #0 {
  %2 = alloca i32, align 4
  store i32 %0, ptr %2, align 4
  %3 = load i32, ptr %2, align 4
  %4 = ashr i32 %3, 12
  ret i32 %4
}

; Function Attrs: nounwind uwtable
define internal ptr @Mmr_StepEntry(ptr noundef %0, i32 noundef %1) #0 {
  %3 = alloca ptr, align 8
  %4 = alloca i32, align 4
  store ptr %0, ptr %3, align 8
  store i32 %1, ptr %4, align 4
  %5 = load ptr, ptr %3, align 8
  %6 = getelementptr inbounds %struct.Mmr_Step_t_, ptr %5, i32 0, i32 5
  %7 = getelementptr inbounds [0 x %struct.Mmr_Fixed_t_], ptr %6, i64 0, i64 0
  %8 = load i32, ptr %4, align 4
  %9 = load ptr, ptr %3, align 8
  %10 = getelementptr inbounds %struct.Mmr_Step_t_, ptr %9, i32 0, i32 1
  %11 = load i32, ptr %10, align 4
  %12 = and i32 %8, %11
  %13 = sext i32 %12 to i64
  %14 = getelementptr inbounds %struct.Mmr_Fixed_t_, ptr %7, i64 %13
  %15 = load i32, ptr %4, align 4
  %16 = load ptr, ptr %3, align 8
  %17 = getelementptr inbounds %struct.Mmr_Step_t_, ptr %16, i32 0, i32 0
  %18 = load i32, ptr %17, align 8
  %19 = ashr i32 %15, %18
  %20 = call ptr @Mmr_FixedEntry(ptr noundef %14, i32 noundef %19)
  ret ptr %20
}

; Function Attrs: nounwind uwtable
define internal i32 @Mig_ObjId(ptr noundef %0) #0 {
  %2 = alloca ptr, align 8
  store ptr %0, ptr %2, align 8
  %3 = load ptr, ptr %2, align 8
  %4 = call i32 @Mig_FanId(ptr noundef %3, i32 noundef 3)
  ret i32 %4
}

; Function Attrs: nounwind uwtable
define internal i32 @Mig_IdCell(i32 noundef %0) #0 {
  %2 = alloca i32, align 4
  store i32 %0, ptr %2, align 4
  %3 = load i32, ptr %2, align 4
  %4 = and i32 %3, 4095
  ret i32 %4
}

; Function Attrs: nounwind uwtable
define internal ptr @Mig_ManPage(ptr noundef %0, i32 noundef %1) #0 {
  %3 = alloca ptr, align 8
  %4 = alloca i32, align 4
  store ptr %0, ptr %3, align 8
  store i32 %1, ptr %4, align 4
  %5 = load ptr, ptr %3, align 8
  %6 = getelementptr inbounds %struct.Mig_Man_t_, ptr %5, i32 0, i32 4
  %7 = load i32, ptr %4, align 4
  %8 = call i32 @Mig_IdPage(i32 noundef %7)
  %9 = call ptr @Vec_PtrEntry(ptr noundef %6, i32 noundef %8)
  ret ptr %9
}

; Function Attrs: nounwind uwtable
define internal ptr @Mpm_CutFetch(ptr noundef %0, i32 noundef %1) #0 {
  %3 = alloca ptr, align 8
  %4 = alloca i32, align 4
  %5 = alloca ptr, align 8
  store ptr %0, ptr %3, align 8
  store i32 %1, ptr %4, align 4
  %6 = load ptr, ptr %3, align 8
  %7 = getelementptr inbounds %struct.Mpm_Man_t_, ptr %6, i32 0, i32 10
  %8 = load ptr, ptr %7, align 8
  %9 = load i32, ptr %4, align 4
  %10 = call ptr @Mmr_StepEntry(ptr noundef %8, i32 noundef %9)
  store ptr %10, ptr %5, align 8
  %11 = load ptr, ptr %5, align 8
  ret ptr %11
}

; Function Attrs: nounwind uwtable
define internal i32 @Mpm_ObjCutBest(ptr noundef %0, ptr noundef %1) #0 {
  %3 = alloca ptr, align 8
  %4 = alloca ptr, align 8
  store ptr %0, ptr %3, align 8
  store ptr %1, ptr %4, align 8
  %5 = load ptr, ptr %3, align 8
  %6 = getelementptr inbounds %struct.Mpm_Man_t_, ptr %5, i32 0, i32 36
  %7 = load ptr, ptr %4, align 8
  %8 = call i32 @Mig_ObjId(ptr noundef %7)
  %9 = call i32 @Vec_IntEntry(ptr noundef %6, i32 noundef %8)
  ret i32 %9
}

; Function Attrs: nounwind uwtable
define internal ptr @Vec_PtrEntry(ptr noundef %0, i32 noundef %1) #0 {
  %3 = alloca ptr, align 8
  %4 = alloca i32, align 4
  store ptr %0, ptr %3, align 8
  store i32 %1, ptr %4, align 4
  %5 = load ptr, ptr %3, align 8
  %6 = getelementptr inbounds %struct.Vec_Ptr_t_, ptr %5, i32 0, i32 2
  %7 = load ptr, ptr %6, align 8
  %8 = load i32, ptr %4, align 4
  %9 = sext i32 %8 to i64
  %10 = getelementptr inbounds ptr, ptr %7, i64 %9
  %11 = load ptr, ptr %10, align 8
  ret ptr %11
}

; Function Attrs: nounwind uwtable
define internal i32 @Vec_PtrSize(ptr noundef %0) #0 {
  %2 = alloca ptr, align 8
  store ptr %0, ptr %2, align 8
  %3 = load ptr, ptr %2, align 8
  %4 = getelementptr inbounds %struct.Vec_Ptr_t_, ptr %3, i32 0, i32 1
  %5 = load i32, ptr %4, align 4
  ret i32 %5
}

; Function Attrs: nounwind uwtable
define internal void @Vec_PtrClear(ptr noundef %0) #0 {
  %2 = alloca ptr, align 8
  store ptr %0, ptr %2, align 8
  %3 = load ptr, ptr %2, align 8
  %4 = getelementptr inbounds %struct.Vec_Ptr_t_, ptr %3, i32 0, i32 1
  store i32 0, ptr %4, align 4
  ret void
}

; Function Attrs: nounwind uwtable
define internal void @Mpm_CutSetDataInt(ptr noundef %0, i32 noundef %1) #0 {
  %3 = alloca ptr, align 8
  %4 = alloca i32, align 4
  store ptr %0, ptr %3, align 8
  store i32 %1, ptr %4, align 4
  %5 = load i32, ptr %4, align 4
  %6 = load ptr, ptr %3, align 8
  %7 = getelementptr inbounds %struct.Mpm_Cut_t_, ptr %6, i32 0, i32 0
  store i32 %5, ptr %7, align 4
  ret void
}

; Function Attrs: nounwind uwtable
define internal i32 @Vec_IntEntry(ptr noundef %0, i32 noundef %1) #0 {
  %3 = alloca ptr, align 8
  %4 = alloca i32, align 4
  store ptr %0, ptr %3, align 8
  store i32 %1, ptr %4, align 4
  %5 = load ptr, ptr %3, align 8
  %6 = getelementptr inbounds %struct.Vec_Int_t_, ptr %5, i32 0, i32 2
  %7 = load ptr, ptr %6, align 8
  %8 = load i32, ptr %4, align 4
  %9 = sext i32 %8 to i64
  %10 = getelementptr inbounds i32, ptr %7, i64 %9
  %11 = load i32, ptr %10, align 4
  ret i32 %11
}

; Function Attrs: nounwind uwtable
define internal ptr @Mig_ManObj(ptr noundef %0, i32 noundef %1) #0 {
  %3 = alloca ptr, align 8
  %4 = alloca i32, align 4
  store ptr %0, ptr %3, align 8
  store i32 %1, ptr %4, align 4
  %5 = load ptr, ptr %3, align 8
  %6 = load i32, ptr %4, align 4
  %7 = call ptr @Mig_ManPage(ptr noundef %5, i32 noundef %6)
  %8 = load i32, ptr %4, align 4
  %9 = call i32 @Mig_IdCell(i32 noundef %8)
  %10 = sext i32 %9 to i64
  %11 = getelementptr inbounds %struct.Mig_Obj_t_, ptr %7, i64 %10
  ret ptr %11
}

; Function Attrs: nounwind uwtable
define internal i32 @Abc_Lit2Var(i32 noundef %0) #0 {
  %2 = alloca i32, align 4
  store i32 %0, ptr %2, align 4
  %3 = load i32, ptr %2, align 4
  %4 = ashr i32 %3, 1
  ret i32 %4
}

; Function Attrs: nounwind uwtable
define internal ptr @Mpm_ObjCutBestP(ptr noundef %0, ptr noundef %1) #0 {
  %3 = alloca ptr, align 8
  %4 = alloca ptr, align 8
  store ptr %0, ptr %3, align 8
  store ptr %1, ptr %4, align 8
  %5 = load ptr, ptr %3, align 8
  %6 = load ptr, ptr %3, align 8
  %7 = load ptr, ptr %4, align 8
  %8 = call i32 @Mpm_ObjCutBest(ptr noundef %6, ptr noundef %7)
  %9 = call ptr @Mpm_CutFetch(ptr noundef %5, i32 noundef %8)
  ret ptr %9
}

; Function Attrs: nounwind uwtable
define i32 @Mpm_ManNodeIfToGia(ptr noundef %0, ptr noundef %1, ptr noundef %2, ptr noundef %3, i32 noundef %4) #0 {
  %6 = alloca i32, align 4
  %7 = alloca ptr, align 8
  %8 = alloca ptr, align 8
  %9 = alloca ptr, align 8
  %10 = alloca ptr, align 8
  %11 = alloca i32, align 4
  %12 = alloca ptr, align 8
  %13 = alloca ptr, align 8
  %14 = alloca i32, align 4
  %15 = alloca i32, align 4
  store ptr %0, ptr %7, align 8
  store ptr %1, ptr %8, align 8
  store ptr %2, ptr %9, align 8
  store ptr %3, ptr %10, align 8
  store i32 %4, ptr %11, align 4
  %16 = load ptr, ptr %8, align 8
  %17 = load ptr, ptr %9, align 8
  %18 = call ptr @Mpm_ObjCutBestP(ptr noundef %16, ptr noundef %17)
  store ptr %18, ptr %12, align 8
  store i32 0, ptr %14, align 4
  br label %19

19:                                               ; preds = %48, %5
  %20 = load i32, ptr %14, align 4
  %21 = load ptr, ptr %12, align 8
  %22 = getelementptr inbounds %struct.Mpm_Cut_t_, ptr %21, i32 0, i32 1
  %23 = load i32, ptr %22, align 4
  %24 = lshr i32 %23, 27
  %25 = icmp slt i32 %20, %24
  br i1 %25, label %26, label %39

26:                                               ; preds = %19
  %27 = load ptr, ptr %8, align 8
  %28 = getelementptr inbounds %struct.Mpm_Man_t_, ptr %27, i32 0, i32 0
  %29 = load ptr, ptr %28, align 8
  %30 = load ptr, ptr %12, align 8
  %31 = getelementptr inbounds %struct.Mpm_Cut_t_, ptr %30, i32 0, i32 2
  %32 = load i32, ptr %14, align 4
  %33 = sext i32 %32 to i64
  %34 = getelementptr inbounds [1 x i32], ptr %31, i64 0, i64 %33
  %35 = load i32, ptr %34, align 4
  %36 = call i32 @Abc_Lit2Var(i32 noundef %35)
  %37 = call ptr @Mig_ManObj(ptr noundef %29, i32 noundef %36)
  store ptr %37, ptr %13, align 8
  %38 = icmp ne ptr %37, null
  br label %39

39:                                               ; preds = %26, %19
  %40 = phi i1 [ false, %19 ], [ %38, %26 ]
  br i1 %40, label %41, label %51

41:                                               ; preds = %39
  %42 = load ptr, ptr %8, align 8
  %43 = load ptr, ptr %13, align 8
  %44 = call ptr @Mpm_ObjCutBestP(ptr noundef %42, ptr noundef %43)
  %45 = load ptr, ptr %10, align 8
  %46 = load i32, ptr %14, align 4
  %47 = call i32 @Vec_IntEntry(ptr noundef %45, i32 noundef %46)
  call void @Mpm_CutSetDataInt(ptr noundef %44, i32 noundef %47)
  br label %48

48:                                               ; preds = %41
  %49 = load i32, ptr %14, align 4
  %50 = add nsw i32 %49, 1
  store i32 %50, ptr %14, align 4
  br label %19, !llvm.loop !10

51:                                               ; preds = %39
  %52 = load ptr, ptr %8, align 8
  %53 = getelementptr inbounds %struct.Mpm_Man_t_, ptr %52, i32 0, i32 15
  %54 = load ptr, ptr %53, align 8
  call void @Vec_PtrClear(ptr noundef %54)
  %55 = load ptr, ptr %7, align 8
  %56 = load ptr, ptr %8, align 8
  %57 = load ptr, ptr %9, align 8
  %58 = load ptr, ptr %8, align 8
  %59 = getelementptr inbounds %struct.Mpm_Man_t_, ptr %58, i32 0, i32 15
  %60 = load ptr, ptr %59, align 8
  %61 = load i32, ptr %11, align 4
  %62 = call i32 @Mpm_ManNodeIfToGia_rec(ptr noundef %55, ptr noundef %56, ptr noundef %57, ptr noundef %60, i32 noundef %61)
  store i32 %62, ptr %15, align 4
  %63 = load i32, ptr %15, align 4
  %64 = icmp eq i32 %63, -1
  br i1 %64, label %65, label %66

65:                                               ; preds = %51
  call void (i32, ptr, ...) @Abc_Print(i32 noundef -1, ptr noundef @.str)
  store i32 -1, ptr %6, align 4
  br label %119

66:                                               ; preds = %51
  store i32 0, ptr %14, align 4
  br label %67

67:                                               ; preds = %93, %66
  %68 = load i32, ptr %14, align 4
  %69 = load ptr, ptr %12, align 8
  %70 = getelementptr inbounds %struct.Mpm_Cut_t_, ptr %69, i32 0, i32 1
  %71 = load i32, ptr %70, align 4
  %72 = lshr i32 %71, 27
  %73 = icmp slt i32 %68, %72
  br i1 %73, label %74, label %87

74:                                               ; preds = %67
  %75 = load ptr, ptr %8, align 8
  %76 = getelementptr inbounds %struct.Mpm_Man_t_, ptr %75, i32 0, i32 0
  %77 = load ptr, ptr %76, align 8
  %78 = load ptr, ptr %12, align 8
  %79 = getelementptr inbounds %struct.Mpm_Cut_t_, ptr %78, i32 0, i32 2
  %80 = load i32, ptr %14, align 4
  %81 = sext i32 %80 to i64
  %82 = getelementptr inbounds [1 x i32], ptr %79, i64 0, i64 %81
  %83 = load i32, ptr %82, align 4
  %84 = call i32 @Abc_Lit2Var(i32 noundef %83)
  %85 = call ptr @Mig_ManObj(ptr noundef %77, i32 noundef %84)
  store ptr %85, ptr %13, align 8
  %86 = icmp ne ptr %85, null
  br label %87

87:                                               ; preds = %74, %67
  %88 = phi i1 [ false, %67 ], [ %86, %74 ]
  br i1 %88, label %89, label %96

89:                                               ; preds = %87
  %90 = load ptr, ptr %8, align 8
  %91 = load ptr, ptr %13, align 8
  %92 = call ptr @Mpm_ObjCutBestP(ptr noundef %90, ptr noundef %91)
  call void @Mpm_CutSetDataInt(ptr noundef %92, i32 noundef 0)
  br label %93

93:                                               ; preds = %89
  %94 = load i32, ptr %14, align 4
  %95 = add nsw i32 %94, 1
  store i32 %95, ptr %14, align 4
  br label %67, !llvm.loop !11

96:                                               ; preds = %87
  store i32 0, ptr %14, align 4
  br label %97

97:                                               ; preds = %114, %96
  %98 = load i32, ptr %14, align 4
  %99 = load ptr, ptr %8, align 8
  %100 = getelementptr inbounds %struct.Mpm_Man_t_, ptr %99, i32 0, i32 15
  %101 = load ptr, ptr %100, align 8
  %102 = call i32 @Vec_PtrSize(ptr noundef %101)
  %103 = icmp slt i32 %98, %102
  br i1 %103, label %104, label %110

104:                                              ; preds = %97
  %105 = load ptr, ptr %8, align 8
  %106 = getelementptr inbounds %struct.Mpm_Man_t_, ptr %105, i32 0, i32 15
  %107 = load ptr, ptr %106, align 8
  %108 = load i32, ptr %14, align 4
  %109 = call ptr @Vec_PtrEntry(ptr noundef %107, i32 noundef %108)
  store ptr %109, ptr %12, align 8
  br label %110

110:                                              ; preds = %104, %97
  %111 = phi i1 [ false, %97 ], [ true, %104 ]
  br i1 %111, label %112, label %117

112:                                              ; preds = %110
  %113 = load ptr, ptr %12, align 8
  call void @Mpm_CutSetDataInt(ptr noundef %113, i32 noundef 0)
  br label %114

114:                                              ; preds = %112
  %115 = load i32, ptr %14, align 4
  %116 = add nsw i32 %115, 1
  store i32 %116, ptr %14, align 4
  br label %97, !llvm.loop !12

117:                                              ; preds = %110
  %118 = load i32, ptr %15, align 4
  store i32 %118, ptr %6, align 4
  br label %119

119:                                              ; preds = %117, %65
  %120 = load i32, ptr %6, align 4
  ret i32 %120
}