; Function Attrs: nounwind uwtable
define i32 @Mpm_ManNodeIfToGia(ptr noundef %0, ptr noundef %1, ptr noundef readonly captures(none) %2, ptr noundef readonly captures(none) %3, i32 noundef %4) local_unnamed_addr #0 {
  %6 = getelementptr i8, ptr %1, i64 64
  %.val53 = load ptr, ptr %6, align 8
  %7 = getelementptr i8, ptr %1, i64 11344
  %.val54 = load ptr, ptr %7, align 8
  %8 = getelementptr i8, ptr %2, i64 12
  %.val55 = load i32, ptr %8, align 4
  %9 = lshr i32 %.val55, 1
  %10 = zext nneg i32 %9 to i64
  %11 = getelementptr inbounds nuw i32, ptr %.val54, i64 %10
  %12 = load i32, ptr %11, align 4
  %13 = getelementptr inbounds nuw i8, ptr %.val53, i64 24
  %14 = getelementptr inbounds nuw i8, ptr %.val53, i64 4
  %15 = load i32, ptr %14, align 4
  %16 = and i32 %15, %12
  %17 = sext i32 %16 to i64
  %18 = getelementptr inbounds %struct.Mmr_Fixed_t_, ptr %13, i64 %17
  %19 = load i32, ptr %.val53, align 8
  %20 = ashr i32 %12, %19
  %21 = load i32, ptr %18, align 8
  %22 = ashr i32 %20, %21
  %23 = getelementptr i8, ptr %18, i64 32
  %.val.i.i.i.i = load ptr, ptr %23, align 8
  %24 = sext i32 %22 to i64
  %25 = getelementptr inbounds ptr, ptr %.val.i.i.i.i, i64 %24
  %26 = load ptr, ptr %25, align 8
  %27 = getelementptr inbounds nuw i8, ptr %18, i64 4
  %28 = load i32, ptr %27, align 4
  %29 = and i32 %28, %20
  %30 = sext i32 %29 to i64
  %31 = getelementptr inbounds i64, ptr %26, i64 %30
  %32 = getelementptr inbounds nuw i8, ptr %31, i64 4
  %33 = load i32, ptr %32, align 4
  %.not66 = icmp ult i32 %33, 134217728
  br i1 %.not66, label %.critedge, label %.lr.ph

.lr.ph:                                           ; preds = %5
  %34 = getelementptr inbounds nuw i8, ptr %31, i64 8
  %35 = getelementptr i8, ptr %3, i64 8
  br label %36

36:                                               ; preds = %.lr.ph, %45
  %indvars.iv = phi i64 [ 0, %.lr.ph ], [ %indvars.iv.next, %45 ]
  %37 = load ptr, ptr %1, align 8
  %38 = getelementptr inbounds nuw [1 x i32], ptr %34, i64 0, i64 %indvars.iv
  %39 = load i32, ptr %38, align 4
  %40 = getelementptr i8, ptr %37, i64 32
  %.val44 = load ptr, ptr %40, align 8
  %41 = ashr i32 %39, 13
  %42 = sext i32 %41 to i64
  %43 = getelementptr inbounds ptr, ptr %.val44, i64 %42
  %44 = load ptr, ptr %43, align 8
  %.not = icmp eq ptr %44, null
  br i1 %.not, label %.critedge, label %45

45:                                               ; preds = %36
  %46 = lshr i32 %39, 1
  %47 = and i32 %46, 4095
  %48 = zext nneg i32 %47 to i64
  %.val50 = load ptr, ptr %6, align 8
  %.val51 = load ptr, ptr %7, align 8
  %49 = getelementptr %struct.Mig_Obj_t_, ptr %44, i64 %48, i32 0, i64 3
  %.val52 = load i32, ptr %49, align 4
  %50 = lshr i32 %.val52, 1
  %51 = zext nneg i32 %50 to i64
  %52 = getelementptr inbounds nuw i32, ptr %.val51, i64 %51
  %53 = load i32, ptr %52, align 4
  %54 = getelementptr inbounds nuw i8, ptr %.val50, i64 24
  %55 = getelementptr inbounds nuw i8, ptr %.val50, i64 4
  %56 = load i32, ptr %55, align 4
  %57 = and i32 %56, %53
  %58 = sext i32 %57 to i64
  %59 = getelementptr inbounds %struct.Mmr_Fixed_t_, ptr %54, i64 %58
  %60 = load i32, ptr %.val50, align 8
  %61 = ashr i32 %53, %60
  %62 = load i32, ptr %59, align 8
  %63 = ashr i32 %61, %62
  %64 = getelementptr i8, ptr %59, i64 32
  %.val.i.i.i.i56 = load ptr, ptr %64, align 8
  %65 = sext i32 %63 to i64
  %66 = getelementptr inbounds ptr, ptr %.val.i.i.i.i56, i64 %65
  %67 = load ptr, ptr %66, align 8
  %68 = getelementptr inbounds nuw i8, ptr %59, i64 4
  %69 = load i32, ptr %68, align 4
  %70 = and i32 %69, %61
  %71 = sext i32 %70 to i64
  %72 = getelementptr inbounds i64, ptr %67, i64 %71
  %.val46 = load ptr, ptr %35, align 8
  %73 = getelementptr inbounds nuw i32, ptr %.val46, i64 %indvars.iv
  %74 = load i32, ptr %73, align 4
  store i32 %74, ptr %72, align 4
  %indvars.iv.next = add nuw nsw i64 %indvars.iv, 1
  %75 = load i32, ptr %32, align 4
  %76 = lshr i32 %75, 27
  %77 = zext nneg i32 %76 to i64
  %78 = icmp samesign ult i64 %indvars.iv.next, %77
  br i1 %78, label %36, label %.critedge, !llvm.loop !10

.critedge:                                        ; preds = %36, %45, %5
  %79 = getelementptr inbounds nuw i8, ptr %1, i64 3264
  %80 = load ptr, ptr %79, align 8
  %81 = getelementptr inbounds nuw i8, ptr %80, i64 4
  store i32 0, ptr %81, align 4
  %82 = load ptr, ptr %79, align 8
  %83 = tail call i32 @Mpm_ManNodeIfToGia_rec(ptr noundef %0, ptr noundef nonnull %1, ptr noundef %2, ptr noundef %82, i32 noundef %4)
  %84 = icmp eq i32 %83, -1
  br i1 %84, label %87, label %.preheader

.preheader:                                       ; preds = %.critedge
  %85 = load i32, ptr %32, align 4
  %.not67 = icmp ult i32 %85, 134217728
  br i1 %.not67, label %.critedge2, label %.lr.ph61

.lr.ph61:                                         ; preds = %.preheader
  %86 = getelementptr inbounds nuw i8, ptr %31, i64 8
  br label %88

87:                                               ; preds = %.critedge
  tail call void (i32, ptr, ...) @Abc_Print(i32 poison, ptr nonnull poison)
  br label %.critedge4

88:                                               ; preds = %.lr.ph61, %97
  %indvars.iv69 = phi i64 [ 0, %.lr.ph61 ], [ %indvars.iv.next70, %97 ]
  %89 = load ptr, ptr %1, align 8
  %90 = getelementptr inbounds nuw [1 x i32], ptr %86, i64 0, i64 %indvars.iv69
  %91 = load i32, ptr %90, align 4
  %92 = getelementptr i8, ptr %89, i64 32
  %.val43 = load ptr, ptr %92, align 8
  %93 = ashr i32 %91, 13
  %94 = sext i32 %93 to i64
  %95 = getelementptr inbounds ptr, ptr %.val43, i64 %94
  %96 = load ptr, ptr %95, align 8
  %.not42 = icmp eq ptr %96, null
  br i1 %.not42, label %.critedge2, label %97

97:                                               ; preds = %88
  %98 = lshr i32 %91, 1
  %99 = and i32 %98, 4095
  %100 = zext nneg i32 %99 to i64
  %.val47 = load ptr, ptr %6, align 8
  %.val48 = load ptr, ptr %7, align 8
  %101 = getelementptr %struct.Mig_Obj_t_, ptr %96, i64 %100, i32 0, i64 3
  %.val49 = load i32, ptr %101, align 4
  %102 = lshr i32 %.val49, 1
  %103 = zext nneg i32 %102 to i64
  %104 = getelementptr inbounds nuw i32, ptr %.val48, i64 %103
  %105 = load i32, ptr %104, align 4
  %106 = getelementptr inbounds nuw i8, ptr %.val47, i64 24
  %107 = getelementptr inbounds nuw i8, ptr %.val47, i64 4
  %108 = load i32, ptr %107, align 4
  %109 = and i32 %108, %105
  %110 = sext i32 %109 to i64
  %111 = getelementptr inbounds %struct.Mmr_Fixed_t_, ptr %106, i64 %110
  %112 = load i32, ptr %.val47, align 8
  %113 = ashr i32 %105, %112
  %114 = load i32, ptr %111, align 8
  %115 = ashr i32 %113, %114
  %116 = getelementptr i8, ptr %111, i64 32
  %.val.i.i.i.i57 = load ptr, ptr %116, align 8
  %117 = sext i32 %115 to i64
  %118 = getelementptr inbounds ptr, ptr %.val.i.i.i.i57, i64 %117
  %119 = load ptr, ptr %118, align 8
  %120 = getelementptr inbounds nuw i8, ptr %111, i64 4
  %121 = load i32, ptr %120, align 4
  %122 = and i32 %121, %113
  %123 = sext i32 %122 to i64
  %124 = getelementptr inbounds i64, ptr %119, i64 %123
  store i32 0, ptr %124, align 4
  %indvars.iv.next70 = add nuw nsw i64 %indvars.iv69, 1
  %125 = load i32, ptr %32, align 4
  %126 = lshr i32 %125, 27
  %127 = zext nneg i32 %126 to i64
  %128 = icmp samesign ult i64 %indvars.iv.next70, %127
  br i1 %128, label %88, label %.critedge2, !llvm.loop !11

.critedge2:                                       ; preds = %88, %97, %.preheader
  %129 = load ptr, ptr %79, align 8
  %130 = getelementptr i8, ptr %129, i64 4
  %.val4563 = load i32, ptr %130, align 4
  %131 = icmp sgt i32 %.val4563, 0
  br i1 %131, label %.lr.ph65, label %.critedge4

.lr.ph65:                                         ; preds = %.critedge2, %.lr.ph65
  %indvars.iv72 = phi i64 [ %indvars.iv.next73, %.lr.ph65 ], [ 0, %.critedge2 ]
  %132 = phi ptr [ %136, %.lr.ph65 ], [ %129, %.critedge2 ]
  %133 = getelementptr i8, ptr %132, i64 8
  %.val = load ptr, ptr %133, align 8
  %134 = getelementptr inbounds nuw ptr, ptr %.val, i64 %indvars.iv72
  %135 = load ptr, ptr %134, align 8
  store i32 0, ptr %135, align 4
  %indvars.iv.next73 = add nuw nsw i64 %indvars.iv72, 1
  %136 = load ptr, ptr %79, align 8
  %137 = getelementptr i8, ptr %136, i64 4
  %.val45 = load i32, ptr %137, align 4
  %138 = sext i32 %.val45 to i64
  %139 = icmp slt i64 %indvars.iv.next73, %138
  br i1 %139, label %.lr.ph65, label %.critedge4, !llvm.loop !12

.critedge4:                                       ; preds = %.lr.ph65, %.critedge2, %87
  ret i32 %83
}